; Function Attrs: nofree nounwind memory(read, inaccessiblemem: none) uwtable
define ptr @Ver_ParseGetNondrivenBundle(ptr noundef readonly captures(none) %0, i32 noundef %1) local_unnamed_addr #9 {
  %3 = getelementptr inbounds nuw i8, ptr %0, i64 344
  %4 = load ptr, ptr %3, align 8, !tbaa !72
  %5 = getelementptr i8, ptr %4, i64 4
  %.val31 = load i32, ptr %5, align 4, !tbaa !20
  %6 = icmp sgt i32 %.val31, 0
  br i1 %6, label %.lr.ph46.split.us.preheader, label %.critedge

.lr.ph46.split.us.preheader:                      ; preds = %2
  %7 = getelementptr i8, ptr %4, i64 8
  %.val34 = load ptr, ptr %7, align 8, !tbaa !23
  %8 = xor i32 %1, -1
  %wide.trip.count58.i = zext nneg i32 %.val31 to i64
  br label %.lr.ph46.split.us

.lr.ph46.split.us:                                ; preds = %.lr.ph46.split.us.preheader, %.critedge2.us
  %indvars.iv53 = phi i64 [ 0, %.lr.ph46.split.us.preheader ], [ %indvars.iv.next54, %.critedge2.us ]
  %9 = getelementptr inbounds nuw ptr, ptr %.val34, i64 %indvars.iv53
  %10 = load ptr, ptr %9, align 8, !tbaa !63
  %11 = getelementptr inbounds nuw i8, ptr %10, i64 64
  %12 = load ptr, ptr %11, align 8, !tbaa !73
  %13 = getelementptr i8, ptr %12, i64 4
  %.val30.us = load i32, ptr %13, align 4, !tbaa !20
  %.not.us = icmp slt i32 %1, %.val30.us
  br i1 %.not.us, label %14, label %.critedge2.us

14:                                               ; preds = %.lr.ph46.split.us
  %15 = add i32 %.val30.us, %8
  %16 = getelementptr i8, ptr %12, i64 8
  %.val33.us = load ptr, ptr %16, align 8, !tbaa !23
  %17 = sext i32 %15 to i64
  %18 = getelementptr inbounds ptr, ptr %.val33.us, i64 %17
  %19 = load ptr, ptr %18, align 8, !tbaa !63
  %20 = icmp eq ptr %19, null
  br i1 %20, label %.critedge2.us, label %.preheader.us

.critedge2.us:                                    ; preds = %Ver_ParseFormalNetsAreDriven.exit.us.us, %.preheader.us, %14, %.lr.ph46.split.us
  %indvars.iv.next54 = add nuw nsw i64 %indvars.iv53, 1
  %exitcond57.not = icmp eq i64 %indvars.iv.next54, %wide.trip.count58.i
  br i1 %exitcond57.not, label %.critedge, label %.lr.ph46.split.us, !llvm.loop !76

.preheader.us:                                    ; preds = %14
  %21 = getelementptr inbounds nuw i8, ptr %19, i64 8
  %22 = load ptr, ptr %21, align 8, !tbaa !77
  %23 = getelementptr i8, ptr %22, i64 4
  %.val28.us = load i32, ptr %23, align 4, !tbaa !20
  %24 = icmp sgt i32 %.val28.us, 0
  br i1 %24, label %.lr.ph.us, label %.critedge2.us

.lr.ph.us:                                        ; preds = %.preheader.us
  %25 = getelementptr i8, ptr %22, i64 8
  %.val32.us = load ptr, ptr %25, align 8, !tbaa !23
  %wide.trip.count = zext nneg i32 %.val28.us to i64
  br label %26

26:                                               ; preds = %Ver_ParseFormalNetsAreDriven.exit.us.us, %.lr.ph.us
  %indvars.iv = phi i64 [ %indvars.iv.next, %Ver_ParseFormalNetsAreDriven.exit.us.us ], [ 0, %.lr.ph.us ]
  %27 = getelementptr inbounds nuw ptr, ptr %.val32.us, i64 %indvars.iv
  %28 = load ptr, ptr %27, align 8, !tbaa !63
  %29 = getelementptr i8, ptr %28, i64 28
  %.val.us.us = load i32, ptr %29, align 4, !tbaa !79
  %.not26.us.us = icmp eq i32 %.val.us.us, 0
  br i1 %.not26.us.us, label %.lr.ph49.i.us.us, label %Ver_ParseFormalNetsAreDriven.exit.us.us

.lr.ph49.i.us.us:                                 ; preds = %26
  %30 = load ptr, ptr %19, align 8, !tbaa !80
  br label %31

31:                                               ; preds = %.critedge4.i.us.us, %.lr.ph49.i.us.us
  %indvars.iv55.i.us.us = phi i64 [ 0, %.lr.ph49.i.us.us ], [ %indvars.iv.next56.i.us.us, %.critedge4.i.us.us ]
  %.02847.i.us.us = phi ptr [ null, %.lr.ph49.i.us.us ], [ %.263.i.us.us, %.critedge4.i.us.us ]
  %32 = getelementptr inbounds nuw ptr, ptr %.val34, i64 %indvars.iv55.i.us.us
  %33 = load ptr, ptr %32, align 8, !tbaa !63
  %34 = getelementptr inbounds nuw i8, ptr %33, i64 64
  %35 = load ptr, ptr %34, align 8, !tbaa !73
  %36 = getelementptr i8, ptr %35, i64 4
  %.val33.i.us.us = load i32, ptr %36, align 4, !tbaa !20
  %37 = icmp sgt i32 %.val33.i.us.us, 0
  br i1 %37, label %.lr.ph.i.us.us, label %.preheader.i.us.us

.lr.ph.i.us.us:                                   ; preds = %31
  %.02539.i.us.us = add nsw i32 %.val33.i.us.us, -1
  %38 = getelementptr i8, ptr %35, i64 8
  %.val36.i.us.us = load ptr, ptr %38, align 8, !tbaa !23
  %39 = zext nneg i32 %.02539.i.us.us to i64
  br label %40

40:                                               ; preds = %47, %.lr.ph.i.us.us
  %indvars.iv.i.us.us = phi i64 [ %39, %.lr.ph.i.us.us ], [ %indvars.iv.next.i.us.us, %47 ]
  %41 = getelementptr inbounds nuw ptr, ptr %.val36.i.us.us, i64 %indvars.iv.i.us.us
  %42 = load ptr, ptr %41, align 8, !tbaa !63
  %.not.i.us.us = icmp eq ptr %42, null
  br i1 %.not.i.us.us, label %47, label %43

43:                                               ; preds = %40
  %44 = load ptr, ptr %42, align 8, !tbaa !80
  %45 = tail call i32 @strcmp(ptr noundef nonnull dereferenceable(1) %44, ptr noundef nonnull readonly dereferenceable(1) %30) #22
  %.not30.i.us.us = icmp eq i32 %45, 0
  br i1 %.not30.i.us.us, label %.critedge2.split.loop.exit.i.us.us, label %47

.critedge2.split.loop.exit.i.us.us:               ; preds = %43
  %46 = trunc nuw nsw i64 %indvars.iv.i.us.us to i32
  br label %.critedge2.i.us.us

47:                                               ; preds = %43, %40
  %indvars.iv.next.i.us.us = add nsw i64 %indvars.iv.i.us.us, -1
  %48 = icmp sgt i64 %indvars.iv.i.us.us, 0
  br i1 %48, label %40, label %.critedge2.i.us.us, !llvm.loop !81

.critedge2.i.us.us:                               ; preds = %47, %.critedge2.split.loop.exit.i.us.us
  %.025.lcssa.i.us.us = phi i32 [ %46, %.critedge2.split.loop.exit.i.us.us ], [ -1, %47 ]
  %49 = icmp eq i32 %.025.lcssa.i.us.us, %.val33.i.us.us
  br i1 %49, label %.critedge4.i.us.us, label %.preheader.i.us.us

.preheader.i.us.us:                               ; preds = %.critedge2.i.us.us, %31
  %.262.i.us.us = phi ptr [ %42, %.critedge2.i.us.us ], [ %.02847.i.us.us, %31 ]
  %50 = getelementptr inbounds nuw i8, ptr %.262.i.us.us, i64 8
  %51 = load ptr, ptr %50, align 8, !tbaa !77
  %52 = getelementptr i8, ptr %51, i64 4
  %.val31.i.us.us = load i32, ptr %52, align 4, !tbaa !20
  %53 = icmp sgt i32 %.val31.i.us.us, 0
  br i1 %53, label %.lr.ph46.i.us.us, label %.critedge4.i.us.us

.lr.ph46.i.us.us:                                 ; preds = %.preheader.i.us.us
  %54 = getelementptr i8, ptr %51, i64 8
  %.val35.i.us.us = load ptr, ptr %54, align 8, !tbaa !23
  %wide.trip.count.i.us.us = zext nneg i32 %.val31.i.us.us to i64
  br label %55

55:                                               ; preds = %60, %.lr.ph46.i.us.us
  %indvars.iv52.i.us.us = phi i64 [ 0, %.lr.ph46.i.us.us ], [ %indvars.iv.next53.i.us.us, %60 ]
  %56 = getelementptr inbounds nuw ptr, ptr %.val35.i.us.us, i64 %indvars.iv52.i.us.us
  %57 = load ptr, ptr %56, align 8, !tbaa !63
  %58 = getelementptr i8, ptr %57, i64 28
  %.val.i.us.us = load i32, ptr %58, align 4, !tbaa !79
  %59 = icmp sgt i32 %.val.i.us.us, 0
  br i1 %59, label %Ver_ParseFormalNetsAreDriven.exit.us.us, label %60

60:                                               ; preds = %55
  %indvars.iv.next53.i.us.us = add nuw nsw i64 %indvars.iv52.i.us.us, 1
  %exitcond.not.i.us.us = icmp eq i64 %indvars.iv.next53.i.us.us, %wide.trip.count.i.us.us
  br i1 %exitcond.not.i.us.us, label %.critedge4.i.us.us, label %55, !llvm.loop !82

Ver_ParseFormalNetsAreDriven.exit.us.us:          ; preds = %55, %26
  %indvars.iv.next = add nuw nsw i64 %indvars.iv, 1
  %exitcond.not = icmp eq i64 %indvars.iv.next, %wide.trip.count
  br i1 %exitcond.not, label %.critedge2.us, label %26, !llvm.loop !83

.critedge4.i.us.us:                               ; preds = %60, %.preheader.i.us.us, %.critedge2.i.us.us
  %.263.i.us.us = phi ptr [ %.262.i.us.us, %.preheader.i.us.us ], [ %42, %.critedge2.i.us.us ], [ %.262.i.us.us, %60 ]
  %indvars.iv.next56.i.us.us = add nuw nsw i64 %indvars.iv55.i.us.us, 1
  %exitcond59.not.i.us.us = icmp eq i64 %indvars.iv.next56.i.us.us, %wide.trip.count58.i
  br i1 %exitcond59.not.i.us.us, label %.critedge, label %31, !llvm.loop !84

.critedge:                                        ; preds = %.critedge2.us, %.critedge4.i.us.us, %2
  %.023 = phi ptr [ null, %2 ], [ %19, %.critedge4.i.us.us ], [ null, %.critedge2.us ]
  ret ptr %.023
}